; Function Attrs: mustprogress uwtable
define void @_ZNK4pkpy3Str6substrEi(ptr dead_on_unwind noalias writable sret(%"struct.pkpy::Str") align 8 %0, ptr nocapture noundef nonnull readonly align 8 dereferenceable(32) %1, i32 noundef %2) local_unnamed_addr #3 align 2 {
  %4 = load i32, ptr %1, align 8
  %5 = sub nsw i32 %4, %2
  tail call void @llvm.experimental.noalias.scope.decl(metadata !19)
  %6 = getelementptr inbounds i8, ptr %1, i64 4
  %7 = load i8, ptr %6, align 4, !noalias !19
  %8 = trunc i8 %7 to i1
  tail call void @_ZN4pkpy3StrC1Eib(ptr noundef nonnull align 8 dereferenceable(32) %0, i32 noundef %5, i1 noundef zeroext %8)
  %9 = getelementptr inbounds i8, ptr %0, i64 8
  %10 = load ptr, ptr %9, align 8, !alias.scope !19
  %11 = getelementptr inbounds i8, ptr %1, i64 8
  %12 = load ptr, ptr %11, align 8, !noalias !19
  %13 = sext i32 %2 to i64
  %14 = getelementptr inbounds i8, ptr %12, i64 %13
  %15 = sext i32 %5 to i64
  tail call void @llvm.memcpy.p0.p0.i64(ptr align 1 %10, ptr align 1 %14, i64 %15, i1 false)
  %16 = load ptr, ptr %9, align 8, !alias.scope !19
  %17 = getelementptr inbounds i8, ptr %16, i64 %15
  store i8 0, ptr %17, align 1
  ret void
}